; Function Attrs: mustprogress uwtable
define dso_local void @_ZNK22cmNinjaTargetGenerator18LanguageDyndepRuleERKNSt7__cxx1112basic_stringIcSt11char_traitsIcESaIcEEES7_(ptr dead_on_unwind noalias writable sret(%"class.std::__cxx11::basic_string") align 8 %0, ptr nocapture noundef nonnull readonly align 8 dereferenceable(240) %1, ptr noundef nonnull align 8 dereferenceable(32) %2, ptr noundef nonnull align 8 dereferenceable(32) %3) local_unnamed_addr #3 align 2 personality ptr @__gxx_personality_v0 {
  %5 = alloca [5 x %"struct.std::pair.982"], align 8
  %6 = alloca %class.cmAlphaNum, align 8
  %7 = alloca %"class.std::__cxx11::basic_string", align 8
  %8 = getelementptr inbounds i8, ptr %1, i64 8
  %9 = load ptr, ptr %8, align 8
  %10 = tail call noundef nonnull align 8 dereferenceable(32) ptr @_ZNK17cmGeneratorTarget7GetNameB5cxx11Ev(ptr noundef nonnull align 8 dereferenceable(2728) %9)
  call void @_ZN22cmGlobalNinjaGenerator14EncodeRuleNameERKNSt7__cxx1112basic_stringIcSt11char_traitsIcESaIcEEE(ptr dead_on_unwind nonnull writable sret(%"class.std::__cxx11::basic_string") align 8 %7, ptr noundef nonnull align 8 dereferenceable(32) %10)
  call void @llvm.lifetime.start.p0(i64 120, ptr nonnull %5)
  call void @llvm.lifetime.start.p0(i64 56, ptr nonnull %6)
  %11 = call { i64, ptr } @_ZNKSt7__cxx1112basic_stringIcSt11char_traitsIcESaIcEEcvSt17basic_string_viewIcS2_EEv(ptr noundef nonnull align 8 dereferenceable(32) %2) #24, !noalias !90
  %12 = extractvalue { i64, ptr } %11, 0
  %13 = extractvalue { i64, ptr } %11, 1
  store i64 %12, ptr %5, align 8, !alias.scope !93, !noalias !90
  %.sroa.2.0..sroa_idx.i.i = getelementptr inbounds i8, ptr %5, i64 8
  store ptr %13, ptr %.sroa.2.0..sroa_idx.i.i, align 8, !alias.scope !93, !noalias !90
  %14 = getelementptr inbounds i8, ptr %5, i64 16
  store ptr null, ptr %14, align 8, !alias.scope !93, !noalias !90
  %15 = getelementptr inbounds i8, ptr %5, i64 24
  store i64 9, ptr %15, align 8, !alias.scope !96, !noalias !90
  %.sroa.2.0..sroa_idx.i9.i = getelementptr inbounds i8, ptr %5, i64 32
  store ptr @.str.10, ptr %.sroa.2.0..sroa_idx.i9.i, align 8, !alias.scope !96, !noalias !90
  %16 = getelementptr inbounds i8, ptr %5, i64 40
  store ptr null, ptr %16, align 8, !alias.scope !96, !noalias !90
  %17 = getelementptr inbounds i8, ptr %5, i64 48
  call void @llvm.experimental.noalias.scope.decl(metadata !99)
  %18 = call { i64, ptr } @_ZNKSt7__cxx1112basic_stringIcSt11char_traitsIcESaIcEEcvSt17basic_string_viewIcS2_EEv(ptr noundef nonnull align 8 dereferenceable(32) %7) #24, !noalias !102
  %19 = extractvalue { i64, ptr } %18, 0
  %20 = extractvalue { i64, ptr } %18, 1
  store i64 %19, ptr %17, align 8, !alias.scope !99, !noalias !90
  %.sroa.2.0..sroa_idx.i18.i = getelementptr inbounds i8, ptr %5, i64 56
  store ptr %20, ptr %.sroa.2.0..sroa_idx.i18.i, align 8, !alias.scope !99, !noalias !90
  %21 = getelementptr inbounds i8, ptr %5, i64 64
  store ptr %7, ptr %21, align 8, !alias.scope !99, !noalias !90
  %22 = getelementptr inbounds i8, ptr %5, i64 72
  store ptr null, ptr %6, align 8, !noalias !90
  %23 = getelementptr inbounds i8, ptr %6, i64 8
  %24 = getelementptr inbounds i8, ptr %6, i64 24
  store i64 1, ptr %23, align 8, !noalias !90
  %25 = getelementptr inbounds i8, ptr %6, i64 16
  store ptr %24, ptr %25, align 8, !noalias !90
  store i8 95, ptr %24, align 8, !noalias !90
  store i64 1, ptr %22, align 8, !alias.scope !103, !noalias !90
  %.sroa.2.0..sroa_idx.i27.i = getelementptr inbounds i8, ptr %5, i64 80
  store ptr %24, ptr %.sroa.2.0..sroa_idx.i27.i, align 8, !alias.scope !103, !noalias !90
  %26 = getelementptr inbounds i8, ptr %5, i64 88
  store ptr null, ptr %26, align 8, !alias.scope !103, !noalias !90
  %27 = getelementptr inbounds i8, ptr %5, i64 96
  %28 = call { i64, ptr } @_ZNKSt7__cxx1112basic_stringIcSt11char_traitsIcESaIcEEcvSt17basic_string_viewIcS2_EEv(ptr noundef nonnull align 8 dereferenceable(32) %3) #24, !noalias !90
  %29 = extractvalue { i64, ptr } %28, 0
  %30 = extractvalue { i64, ptr } %28, 1
  store i64 %29, ptr %27, align 8, !alias.scope !106, !noalias !90
  %.sroa.2.0..sroa_idx.i36.i = getelementptr inbounds i8, ptr %5, i64 104
  store ptr %30, ptr %.sroa.2.0..sroa_idx.i36.i, align 8, !alias.scope !106, !noalias !90
  %31 = getelementptr inbounds i8, ptr %5, i64 112
  store ptr null, ptr %31, align 8, !alias.scope !106, !noalias !90
  invoke void @_Z10cmCatViewsSt16initializer_listISt4pairISt17basic_string_viewIcSt11char_traitsIcEEPNSt7__cxx1112basic_stringIcS3_SaIcEEEEE(ptr dead_on_unwind writable sret(%"class.std::__cxx11::basic_string") align 8 %0, ptr nonnull %5, i64 5)
          to label %32 unwind label %33

32:                                               ; preds = %4
  call void @llvm.lifetime.end.p0(i64 120, ptr nonnull %5)
  call void @llvm.lifetime.end.p0(i64 56, ptr nonnull %6)
  call void @_ZNSt7__cxx1112basic_stringIcSt11char_traitsIcESaIcEED1Ev(ptr noundef nonnull align 8 dereferenceable(32) %7) #24
  ret void

33:                                               ; preds = %4
  %34 = landingpad { ptr, i32 }
          cleanup
  call void @_ZNSt7__cxx1112basic_stringIcSt11char_traitsIcESaIcEED1Ev(ptr noundef nonnull align 8 dereferenceable(32) %7) #24
  resume { ptr, i32 } %34
}